; Function Attrs: mustprogress nofree norecurse nosync nounwind willreturn memory(read, inaccessiblemem: none) uwtable
define hidden noundef zeroext i1 @_ZN9CodeCache8containsEP7nmethod(ptr noundef readnone %0) local_unnamed_addr #5 align 2 {
  %2 = load ptr, ptr @_ZN9CodeCache6_heapsE, align 8
  %3 = load i32, ptr %2, align 4
  %.not.i = icmp eq i32 %3, 0
  br i1 %.not.i, label %_ZN9CodeCache8containsEPv.exit, label %.lr.ph.i

.lr.ph.i:                                         ; preds = %1
  %4 = getelementptr inbounds i8, ptr %2, i64 8
  %5 = load ptr, ptr %4, align 8
  %6 = zext i32 %3 to i64
  br label %7

7:                                                ; preds = %7, %.lr.ph.i
  %indvars.iv.i = phi i64 [ 0, %.lr.ph.i ], [ %indvars.iv.next.i, %7 ]
  %8 = getelementptr inbounds ptr, ptr %5, i64 %indvars.iv.i
  %9 = load ptr, ptr %8, align 8
  %10 = getelementptr inbounds i8, ptr %9, i64 16
  %11 = load ptr, ptr %10, align 8
  %.not.i.i = icmp ule ptr %11, %0
  %12 = getelementptr inbounds i8, ptr %9, i64 24
  %13 = load ptr, ptr %12, align 8
  %14 = icmp ugt ptr %13, %0
  %15 = select i1 %.not.i.i, i1 %14, i1 false
  %indvars.iv.next.i = add nuw nsw i64 %indvars.iv.i, 1
  %.not10.i = icmp eq i64 %indvars.iv.next.i, %6
  %or.cond = select i1 %15, i1 true, i1 %.not10.i
  br i1 %or.cond, label %_ZN9CodeCache8containsEPv.exit, label %7, !llvm.loop !27

_ZN9CodeCache8containsEPv.exit:                   ; preds = %7, %1
  %.lcssa.i = phi i1 [ false, %1 ], [ %15, %7 ]
  ret i1 %.lcssa.i
}